target datalayout = "e-m:e-p270:32:32-p271:32:32-p272:64:64-i64:64-i128:128-f80:128-n8:16:32:64-S128"
target triple = "x86_64-pc-linux-gnu"

%class.mpff_manager = type <{ i32, i32, %class.svector, i32, i8, [3 x i8], %class.id_gen, [4 x %class.svector], %class.svector, %class.mpff, [8 x i8] }>
%class.id_gen = type { i32, %class.svector }
%class.svector = type { %class.vector }
%class.vector = type { ptr }
%class.mpff = type { i32, i32 }

; Function Attrs: mustprogress nounwind uwtable
define linkonce_odr hidden noundef ptr @_ZNK6vectorIjLb0EjE4dataEv(ptr noundef nonnull align 8 dereferenceable(8) %0) #5 comdat align 2 {
  %2 = alloca ptr, align 8
  store ptr %0, ptr %2, align 8, !tbaa !32
  %3 = load ptr, ptr %2, align 8
  %4 = getelementptr inbounds nuw %class.vector, ptr %3, i32 0, i32 0
  %5 = load ptr, ptr %4, align 8, !tbaa !35
  ret ptr %5
}

; Function Attrs: mustprogress uwtable
define linkonce_odr hidden noundef ptr @_ZNK12mpff_manager3sigERK4mpff(ptr noundef nonnull align 8 dereferenceable(89) %0, ptr noundef nonnull align 4 dereferenceable(8) %1) #4 comdat align 2 {
  %3 = alloca ptr, align 8
  %4 = alloca ptr, align 8
  store ptr %0, ptr %3, align 8, !tbaa !3
  store ptr %1, ptr %4, align 8, !tbaa !29
  %5 = load ptr, ptr %3, align 8
  %6 = getelementptr inbounds nuw %class.mpff_manager, ptr %5, i32 0, i32 2
  %7 = call noundef ptr @_ZNK6vectorIjLb0EjE4dataEv(ptr noundef nonnull align 8 dereferenceable(8) %6)
  %8 = load ptr, ptr %4, align 8, !tbaa !29
  %9 = load i32, ptr %8, align 4
  %10 = lshr i32 %9, 1
  %11 = getelementptr inbounds nuw %class.mpff_manager, ptr %5, i32 0, i32 0
  %12 = load i32, ptr %11, align 8, !tbaa !10
  %13 = mul i32 %10, %12
  %14 = zext i32 %13 to i64
  %15 = getelementptr inbounds nuw i32, ptr %7, i64 %14
  ret ptr %15
}

; Function Attrs: mustprogress uwtable
define hidden void @_ZN12mpff_manager15dec_significandER4mpff(ptr noundef nonnull align 8 dereferenceable(89) %0, ptr noundef nonnull align 4 dereferenceable(8) %1) #4 align 2 {
  %3 = alloca ptr, align 8
  %4 = alloca ptr, align 8
  %5 = alloca ptr, align 8
  %6 = alloca i32, align 4
  %7 = alloca i32, align 4
  store ptr %0, ptr %3, align 8, !tbaa !3
  store ptr %1, ptr %4, align 8, !tbaa !29
  %8 = load ptr, ptr %3, align 8
  call void @llvm.lifetime.start.p0(i64 8, ptr %5) #3
  %9 = load ptr, ptr %4, align 8, !tbaa !29
  %10 = call noundef ptr @_ZNK12mpff_manager3sigERK4mpff(ptr noundef nonnull align 8 dereferenceable(89) %8, ptr noundef nonnull align 4 dereferenceable(8) %9)
  store ptr %10, ptr %5, align 8, !tbaa !36
  call void @llvm.lifetime.start.p0(i64 4, ptr %6) #3
  store i32 0, ptr %6, align 4, !tbaa !8
  br label %11

11:                                               ; preds = %33, %2
  %12 = load i32, ptr %6, align 4, !tbaa !8
  %13 = getelementptr inbounds nuw %class.mpff_manager, ptr %8, i32 0, i32 0
  %14 = load i32, ptr %13, align 8, !tbaa !10
  %15 = sub i32 %14, 1
  %16 = icmp ult i32 %12, %15
  br i1 %16, label %18, label %17

17:                                               ; preds = %11
  store i32 2, ptr %7, align 4
  br label %36

18:                                               ; preds = %11
  %19 = load ptr, ptr %5, align 8, !tbaa !36
  %20 = load i32, ptr %6, align 4, !tbaa !8
  %21 = zext i32 %20 to i64
  %22 = getelementptr inbounds nuw i32, ptr %19, i64 %21
  %23 = load i32, ptr %22, align 4, !tbaa !8
  %24 = add i32 %23, -1
  store i32 %24, ptr %22, align 4, !tbaa !8
  %25 = load ptr, ptr %5, align 8, !tbaa !36
  %26 = load i32, ptr %6, align 4, !tbaa !8
  %27 = zext i32 %26 to i64
  %28 = getelementptr inbounds nuw i32, ptr %25, i64 %27
  %29 = load i32, ptr %28, align 4, !tbaa !8
  %30 = icmp ne i32 %29, -1
  br i1 %30, label %31, label %32

31:                                               ; preds = %18
  store i32 1, ptr %7, align 4
  br label %36

32:                                               ; preds = %18
  br label %33

33:                                               ; preds = %32
  %34 = load i32, ptr %6, align 4, !tbaa !8
  %35 = add i32 %34, 1
  store i32 %35, ptr %6, align 4, !tbaa !8
  br label %11, !llvm.loop !82

36:                                               ; preds = %31, %17
  call void @llvm.lifetime.end.p0(i64 4, ptr %6) #3
  %37 = load i32, ptr %7, align 4
  switch i32 %37, label %67 [
    i32 2, label %38
  ]

38:                                               ; preds = %36
  %39 = load ptr, ptr %5, align 8, !tbaa !36
  %40 = getelementptr inbounds nuw %class.mpff_manager, ptr %8, i32 0, i32 0
  %41 = load i32, ptr %40, align 8, !tbaa !10
  %42 = sub i32 %41, 1
  %43 = zext i32 %42 to i64
  %44 = getelementptr inbounds nuw i32, ptr %39, i64 %43
  %45 = load i32, ptr %44, align 4, !tbaa !8
  %46 = add i32 %45, -1
  store i32 %46, ptr %44, align 4, !tbaa !8
  %47 = load ptr, ptr %5, align 8, !tbaa !36
  %48 = getelementptr inbounds nuw %class.mpff_manager, ptr %8, i32 0, i32 0
  %49 = load i32, ptr %48, align 8, !tbaa !10
  %50 = sub i32 %49, 1
  %51 = zext i32 %50 to i64
  %52 = getelementptr inbounds nuw i32, ptr %47, i64 %51
  %53 = load i32, ptr %52, align 4, !tbaa !8
  %54 = icmp ult i32 %53, -2147483648
  br i1 %54, label %55, label %66

55:                                               ; preds = %38
  %56 = load ptr, ptr %5, align 8, !tbaa !36
  %57 = getelementptr inbounds nuw %class.mpff_manager, ptr %8, i32 0, i32 0
  %58 = load i32, ptr %57, align 8, !tbaa !10
  %59 = sub i32 %58, 1
  %60 = zext i32 %59 to i64
  %61 = getelementptr inbounds nuw i32, ptr %56, i64 %60
  store i32 -1, ptr %61, align 4, !tbaa !8
  %62 = load ptr, ptr %4, align 8, !tbaa !29
  %63 = getelementptr inbounds nuw %class.mpff, ptr %62, i32 0, i32 1
  %64 = load i32, ptr %63, align 4, !tbaa !31
  %65 = add nsw i32 %64, -1
  store i32 %65, ptr %63, align 4, !tbaa !31
  br label %66

66:                                               ; preds = %55, %38
  store i32 0, ptr %7, align 4
  br label %67

67:                                               ; preds = %66, %36
  call void @llvm.lifetime.end.p0(i64 8, ptr %5) #3
  %68 = load i32, ptr %7, align 4
  switch i32 %68, label %70 [
    i32 0, label %69
    i32 1, label %69
  ]

69:                                               ; preds = %67, %67
  ret void

70:                                               ; preds = %67
  unreachable
}