; Function Attrs: mustprogress nofree norecurse nosync nounwind memory(readwrite, inaccessiblemem: none) uwtable
define hidden void @_ZN12mpff_manager15dec_significandER4mpff(ptr noundef nonnull readonly align 8 captures(none) dereferenceable(89) %0, ptr noundef nonnull align 4 captures(none) dereferenceable(8) %1) local_unnamed_addr #9 align 2 {
  %3 = getelementptr inbounds nuw i8, ptr %0, i64 8
  %4 = load ptr, ptr %3, align 8, !tbaa !3
  %5 = load i32, ptr %1, align 4
  %6 = lshr i32 %5, 1
  %7 = load i32, ptr %0, align 8, !tbaa !13
  %8 = mul i32 %6, %7
  %9 = zext i32 %8 to i64
  %10 = getelementptr inbounds nuw i32, ptr %4, i64 %9
  %.not1314.not = icmp eq i32 %7, 1
  br i1 %.not1314.not, label %.critedge, label %.lr.ph

11:                                               ; preds = %.lr.ph
  %indvars.iv.next = add nuw nsw i64 %indvars.iv, 1
  %12 = load i32, ptr %0, align 8, !tbaa !13
  %13 = add i32 %12, -1
  %14 = zext i32 %13 to i64
  %.not13 = icmp samesign ult i64 %indvars.iv.next, %14
  br i1 %.not13, label %.lr.ph, label %.critedge.loopexit, !llvm.loop !59

.lr.ph:                                           ; preds = %2, %11
  %indvars.iv = phi i64 [ %indvars.iv.next, %11 ], [ 0, %2 ]
  %15 = getelementptr inbounds nuw i32, ptr %10, i64 %indvars.iv
  %16 = load i32, ptr %15, align 4, !tbaa !21
  %17 = add i32 %16, -1
  store i32 %17, ptr %15, align 4, !tbaa !21
  %.not = icmp eq i32 %16, 0
  br i1 %.not, label %11, label %.loopexit

.critedge.loopexit:                               ; preds = %11
  %18 = add i32 %12, -1
  %19 = zext i32 %18 to i64
  br label %.critedge

.critedge:                                        ; preds = %2, %.critedge.loopexit
  %20 = phi i64 [ %19, %.critedge.loopexit ], [ 0, %2 ]
  %21 = getelementptr inbounds nuw i32, ptr %10, i64 %20
  %22 = load i32, ptr %21, align 4, !tbaa !21
  %23 = add i32 %22, -1
  store i32 %23, ptr %21, align 4, !tbaa !21
  %24 = load i32, ptr %0, align 8, !tbaa !13
  %25 = add i32 %24, -1
  %26 = zext i32 %25 to i64
  %27 = getelementptr inbounds nuw i32, ptr %10, i64 %26
  %28 = load i32, ptr %27, align 4, !tbaa !21
  %29 = icmp sgt i32 %28, -1
  br i1 %29, label %30, label %.loopexit

30:                                               ; preds = %.critedge
  store i32 -1, ptr %27, align 4, !tbaa !21
  %31 = getelementptr inbounds nuw i8, ptr %1, i64 4
  %32 = load i32, ptr %31, align 4, !tbaa !35
  %33 = add nsw i32 %32, -1
  store i32 %33, ptr %31, align 4, !tbaa !35
  br label %.loopexit

.loopexit:                                        ; preds = %.lr.ph, %.critedge, %30
  ret void
}